target datalayout = "e-m:e-p270:32:32-p271:32:32-p272:64:64-i64:64-i128:128-f80:128-n8:16:32:64-S128"
target triple = "x86_64-pc-linux-gnu"

; Function Attrs: null_pointer_is_valid sspstrong uwtable
define internal i32 @get_tns_pdu_len_nochksum(ptr noundef %0, ptr noundef %1, i32 noundef %2, ptr noundef %3) #0 {
  %5 = alloca i32, align 4
  %6 = alloca ptr, align 8
  %7 = alloca ptr, align 8
  %8 = alloca i32, align 4
  %9 = alloca ptr, align 8
  %10 = alloca i32, align 4
  %11 = alloca i8, align 1
  %12 = alloca i32, align 4
  %13 = alloca i32, align 4
  store ptr %0, ptr %6, align 8
  store ptr %1, ptr %7, align 8
  store i32 %2, ptr %8, align 4
  store ptr %3, ptr %9, align 8
  call void @llvm.lifetime.start.p0(i64 4, ptr %10) #7
  %14 = load ptr, ptr %7, align 8
  %15 = load i32, ptr %8, align 4
  %16 = call i32 @tvb_get_ntohl(ptr noundef %14, i32 noundef %15)
  store i32 %16, ptr %10, align 4
  %17 = load i32, ptr %8, align 4
  %18 = add i32 %17, 4
  store i32 %18, ptr %8, align 4
  call void @llvm.lifetime.start.p0(i64 1, ptr %11) #7
  %19 = load ptr, ptr %7, align 8
  %20 = load i32, ptr %8, align 4
  %21 = call zeroext i8 @tvb_get_uint8(ptr noundef %19, i32 noundef %20)
  store i8 %21, ptr %11, align 1
  %22 = load i8, ptr %11, align 1
  %23 = zext i8 %22 to i32
  %24 = icmp eq i32 %23, 15
  br i1 %24, label %25, label %39

25:                                               ; preds = %4
  %26 = load i32, ptr %8, align 4
  %27 = add i32 %26, 8
  store i32 %27, ptr %8, align 4
  %28 = load ptr, ptr %7, align 8
  %29 = load i32, ptr %8, align 4
  %30 = call zeroext i1 @tvb_bytes_exist(ptr noundef %28, i32 noundef %29, i32 noundef 4)
  br i1 %30, label %32, label %31

31:                                               ; preds = %25
  store i32 0, ptr %5, align 4
  store i32 1, ptr %12, align 4
  br label %41

32:                                               ; preds = %25
  call void @llvm.lifetime.start.p0(i64 4, ptr %13) #7
  %33 = load ptr, ptr %7, align 8
  %34 = load i32, ptr %8, align 4
  %35 = call i32 @tvb_get_ntohl(ptr noundef %33, i32 noundef %34)
  store i32 %35, ptr %13, align 4
  %36 = load i32, ptr %10, align 4
  %37 = load i32, ptr %13, align 4
  %38 = add i32 %36, %37
  store i32 %38, ptr %5, align 4
  store i32 1, ptr %12, align 4
  call void @llvm.lifetime.end.p0(i64 4, ptr %13) #7
  br label %41

39:                                               ; preds = %4
  %40 = load i32, ptr %10, align 4
  store i32 %40, ptr %5, align 4
  store i32 1, ptr %12, align 4
  br label %41

41:                                               ; preds = %39, %32, %31
  call void @llvm.lifetime.end.p0(i64 1, ptr %11) #7
  call void @llvm.lifetime.end.p0(i64 4, ptr %10) #7
  %42 = load i32, ptr %5, align 4
  ret i32 %42
}