; Function Attrs: null_pointer_is_valid sspstrong uwtable
define internal i32 @get_tns_pdu_len_nochksum(ptr readnone captures(none) %0, ptr noundef %1, i32 noundef %2, ptr readnone captures(none) %3) #0 {
  %5 = tail call i32 @tvb_get_ntohl(ptr noundef %1, i32 noundef %2)
  %6 = add i32 %2, 4
  %7 = tail call zeroext i8 @tvb_get_uint8(ptr noundef %1, i32 noundef %6)
  %8 = icmp eq i8 %7, 15
  br i1 %8, label %9, label %15

9:                                                ; preds = %4
  %10 = add i32 %2, 12
  %11 = tail call zeroext i1 @tvb_bytes_exist(ptr noundef %1, i32 noundef %10, i32 noundef 4)
  br i1 %11, label %12, label %15

12:                                               ; preds = %9
  %13 = tail call i32 @tvb_get_ntohl(ptr noundef %1, i32 noundef %10)
  %14 = add i32 %13, %5
  br label %15

15:                                               ; preds = %4, %9, %12
  %.0 = phi i32 [ %14, %12 ], [ 0, %9 ], [ %5, %4 ]
  ret i32 %.0
}